target datalayout = "e-m:e-p270:32:32-p271:32:32-p272:64:64-i64:64-i128:128-f80:128-n8:16:32:64-S128"
target triple = "x86_64-pc-linux-gnu"

%struct.__storeu_si128 = type { <2 x i64> }

; Function Attrs: alwaysinline nounwind uwtable
define internal <2 x i64> @_mm_set_epi8(i8 noundef signext %0, i8 noundef signext %1, i8 noundef signext %2, i8 noundef signext %3, i8 noundef signext %4, i8 noundef signext %5, i8 noundef signext %6, i8 noundef signext %7, i8 noundef signext %8, i8 noundef signext %9, i8 noundef signext %10, i8 noundef signext %11, i8 noundef signext %12, i8 noundef signext %13, i8 noundef signext %14, i8 noundef signext %15) #3 {
  %17 = alloca i8, align 1
  %18 = alloca i8, align 1
  %19 = alloca i8, align 1
  %20 = alloca i8, align 1
  %21 = alloca i8, align 1
  %22 = alloca i8, align 1
  %23 = alloca i8, align 1
  %24 = alloca i8, align 1
  %25 = alloca i8, align 1
  %26 = alloca i8, align 1
  %27 = alloca i8, align 1
  %28 = alloca i8, align 1
  %29 = alloca i8, align 1
  %30 = alloca i8, align 1
  %31 = alloca i8, align 1
  %32 = alloca i8, align 1
  %33 = alloca <16 x i8>, align 16
  store i8 %0, ptr %17, align 1, !tbaa !13
  store i8 %1, ptr %18, align 1, !tbaa !13
  store i8 %2, ptr %19, align 1, !tbaa !13
  store i8 %3, ptr %20, align 1, !tbaa !13
  store i8 %4, ptr %21, align 1, !tbaa !13
  store i8 %5, ptr %22, align 1, !tbaa !13
  store i8 %6, ptr %23, align 1, !tbaa !13
  store i8 %7, ptr %24, align 1, !tbaa !13
  store i8 %8, ptr %25, align 1, !tbaa !13
  store i8 %9, ptr %26, align 1, !tbaa !13
  store i8 %10, ptr %27, align 1, !tbaa !13
  store i8 %11, ptr %28, align 1, !tbaa !13
  store i8 %12, ptr %29, align 1, !tbaa !13
  store i8 %13, ptr %30, align 1, !tbaa !13
  store i8 %14, ptr %31, align 1, !tbaa !13
  store i8 %15, ptr %32, align 1, !tbaa !13
  %34 = load i8, ptr %32, align 1, !tbaa !13
  %35 = insertelement <16 x i8> poison, i8 %34, i32 0
  %36 = load i8, ptr %31, align 1, !tbaa !13
  %37 = insertelement <16 x i8> %35, i8 %36, i32 1
  %38 = load i8, ptr %30, align 1, !tbaa !13
  %39 = insertelement <16 x i8> %37, i8 %38, i32 2
  %40 = load i8, ptr %29, align 1, !tbaa !13
  %41 = insertelement <16 x i8> %39, i8 %40, i32 3
  %42 = load i8, ptr %28, align 1, !tbaa !13
  %43 = insertelement <16 x i8> %41, i8 %42, i32 4
  %44 = load i8, ptr %27, align 1, !tbaa !13
  %45 = insertelement <16 x i8> %43, i8 %44, i32 5
  %46 = load i8, ptr %26, align 1, !tbaa !13
  %47 = insertelement <16 x i8> %45, i8 %46, i32 6
  %48 = load i8, ptr %25, align 1, !tbaa !13
  %49 = insertelement <16 x i8> %47, i8 %48, i32 7
  %50 = load i8, ptr %24, align 1, !tbaa !13
  %51 = insertelement <16 x i8> %49, i8 %50, i32 8
  %52 = load i8, ptr %23, align 1, !tbaa !13
  %53 = insertelement <16 x i8> %51, i8 %52, i32 9
  %54 = load i8, ptr %22, align 1, !tbaa !13
  %55 = insertelement <16 x i8> %53, i8 %54, i32 10
  %56 = load i8, ptr %21, align 1, !tbaa !13
  %57 = insertelement <16 x i8> %55, i8 %56, i32 11
  %58 = load i8, ptr %20, align 1, !tbaa !13
  %59 = insertelement <16 x i8> %57, i8 %58, i32 12
  %60 = load i8, ptr %19, align 1, !tbaa !13
  %61 = insertelement <16 x i8> %59, i8 %60, i32 13
  %62 = load i8, ptr %18, align 1, !tbaa !13
  %63 = insertelement <16 x i8> %61, i8 %62, i32 14
  %64 = load i8, ptr %17, align 1, !tbaa !13
  %65 = insertelement <16 x i8> %63, i8 %64, i32 15
  store <16 x i8> %65, ptr %33, align 16, !tbaa !13
  %66 = load <16 x i8>, ptr %33, align 16, !tbaa !13
  %67 = bitcast <16 x i8> %66 to <2 x i64>
  ret <2 x i64> %67
}

; Function Attrs: alwaysinline nounwind uwtable
define internal void @_mm_storeu_si128(ptr noundef %0, <2 x i64> noundef %1) #3 {
  %3 = alloca ptr, align 8
  %4 = alloca <2 x i64>, align 16
  store ptr %0, ptr %3, align 8, !tbaa !3
  store <2 x i64> %1, ptr %4, align 16, !tbaa !13
  %5 = load <2 x i64>, ptr %4, align 16, !tbaa !13
  %6 = load ptr, ptr %3, align 8, !tbaa !3
  %7 = getelementptr inbounds nuw %struct.__storeu_si128, ptr %6, i32 0, i32 0
  store <2 x i64> %5, ptr %7, align 1, !tbaa !13
  ret void
}

; Function Attrs: alwaysinline nounwind uwtable
define internal <2 x i64> @_mm_set1_epi8(i8 noundef signext %0) #3 {
  %2 = alloca i8, align 1
  store i8 %0, ptr %2, align 1, !tbaa !13
  %3 = load i8, ptr %2, align 1, !tbaa !13
  %4 = load i8, ptr %2, align 1, !tbaa !13
  %5 = load i8, ptr %2, align 1, !tbaa !13
  %6 = load i8, ptr %2, align 1, !tbaa !13
  %7 = load i8, ptr %2, align 1, !tbaa !13
  %8 = load i8, ptr %2, align 1, !tbaa !13
  %9 = load i8, ptr %2, align 1, !tbaa !13
  %10 = load i8, ptr %2, align 1, !tbaa !13
  %11 = load i8, ptr %2, align 1, !tbaa !13
  %12 = load i8, ptr %2, align 1, !tbaa !13
  %13 = load i8, ptr %2, align 1, !tbaa !13
  %14 = load i8, ptr %2, align 1, !tbaa !13
  %15 = load i8, ptr %2, align 1, !tbaa !13
  %16 = load i8, ptr %2, align 1, !tbaa !13
  %17 = load i8, ptr %2, align 1, !tbaa !13
  %18 = load i8, ptr %2, align 1, !tbaa !13
  %19 = call <2 x i64> @_mm_set_epi8(i8 noundef signext %3, i8 noundef signext %4, i8 noundef signext %5, i8 noundef signext %6, i8 noundef signext %7, i8 noundef signext %8, i8 noundef signext %9, i8 noundef signext %10, i8 noundef signext %11, i8 noundef signext %12, i8 noundef signext %13, i8 noundef signext %14, i8 noundef signext %15, i8 noundef signext %16, i8 noundef signext %17, i8 noundef signext %18)
  ret <2 x i64> %19
}

; Function Attrs: inlinehint nounwind uwtable
define internal void @Put16_SSE2(i8 noundef zeroext %0, ptr noundef %1) #4 {
  %3 = alloca i8, align 1
  %4 = alloca ptr, align 8
  %5 = alloca i32, align 4
  %6 = alloca <2 x i64>, align 16
  store i8 %0, ptr %3, align 1, !tbaa !13
  store ptr %1, ptr %4, align 8, !tbaa !9
  call void @llvm.lifetime.start.p0(i64 4, ptr %5) #9
  call void @llvm.lifetime.start.p0(i64 16, ptr %6) #9
  %7 = load i8, ptr %3, align 1, !tbaa !13
  %8 = call <2 x i64> @_mm_set1_epi8(i8 noundef signext %7)
  store <2 x i64> %8, ptr %6, align 16, !tbaa !13
  store i32 0, ptr %5, align 4, !tbaa !11
  br label %9

9:                                                ; preds = %19, %2
  %10 = load i32, ptr %5, align 4, !tbaa !11
  %11 = icmp slt i32 %10, 16
  br i1 %11, label %12, label %22

12:                                               ; preds = %9
  %13 = load ptr, ptr %4, align 8, !tbaa !9
  %14 = load i32, ptr %5, align 4, !tbaa !11
  %15 = mul nsw i32 %14, 32
  %16 = sext i32 %15 to i64
  %17 = getelementptr inbounds i8, ptr %13, i64 %16
  %18 = load <2 x i64>, ptr %6, align 16, !tbaa !13
  call void @_mm_storeu_si128(ptr noundef %17, <2 x i64> noundef %18)
  br label %19

19:                                               ; preds = %12
  %20 = load i32, ptr %5, align 4, !tbaa !11
  %21 = add nsw i32 %20, 1
  store i32 %21, ptr %5, align 4, !tbaa !11
  br label %9, !llvm.loop !33

22:                                               ; preds = %9
  call void @llvm.lifetime.end.p0(i64 16, ptr %6) #9
  call void @llvm.lifetime.end.p0(i64 4, ptr %5) #9
  ret void
}

; Function Attrs: nounwind uwtable
define internal void @DC16NoTop_SSE2(ptr noundef %0) #0 {
  %2 = alloca ptr, align 8
  %3 = alloca i32, align 4
  %4 = alloca i32, align 4
  store ptr %0, ptr %2, align 8, !tbaa !9
  call void @llvm.lifetime.start.p0(i64 4, ptr %3) #9
  store i32 8, ptr %3, align 4, !tbaa !11
  call void @llvm.lifetime.start.p0(i64 4, ptr %4) #9
  store i32 0, ptr %4, align 4, !tbaa !11
  br label %5

5:                                                ; preds = %19, %1
  %6 = load i32, ptr %4, align 4, !tbaa !11
  %7 = icmp slt i32 %6, 16
  br i1 %7, label %8, label %22

8:                                                ; preds = %5
  %9 = load ptr, ptr %2, align 8, !tbaa !9
  %10 = load i32, ptr %4, align 4, !tbaa !11
  %11 = mul nsw i32 %10, 32
  %12 = add nsw i32 -1, %11
  %13 = sext i32 %12 to i64
  %14 = getelementptr inbounds i8, ptr %9, i64 %13
  %15 = load i8, ptr %14, align 1, !tbaa !13
  %16 = zext i8 %15 to i32
  %17 = load i32, ptr %3, align 4, !tbaa !11
  %18 = add nsw i32 %17, %16
  store i32 %18, ptr %3, align 4, !tbaa !11
  br label %19

19:                                               ; preds = %8
  %20 = load i32, ptr %4, align 4, !tbaa !11
  %21 = add nsw i32 %20, 1
  store i32 %21, ptr %4, align 4, !tbaa !11
  br label %5, !llvm.loop !23

22:                                               ; preds = %5
  %23 = load i32, ptr %3, align 4, !tbaa !11
  %24 = ashr i32 %23, 4
  %25 = trunc i32 %24 to i8
  %26 = load ptr, ptr %2, align 8, !tbaa !9
  call void @Put16_SSE2(i8 noundef zeroext %25, ptr noundef %26)
  call void @llvm.lifetime.end.p0(i64 4, ptr %4) #9
  call void @llvm.lifetime.end.p0(i64 4, ptr %3) #9
  ret void
}