; Function Attrs: nofree norecurse nosync nounwind memory(argmem: readwrite) uwtable
define internal void @DC16NoTop_SSE2(ptr noundef captures(none) %0) #2 {
  %invariant.gep = getelementptr i8, ptr %0, i64 -1
  br label %2

2:                                                ; preds = %1, %2
  %indvars.iv = phi i64 [ 0, %1 ], [ %indvars.iv.next, %2 ]
  %.067 = phi i32 [ 8, %1 ], [ %6, %2 ]
  %3 = shl nuw nsw i64 %indvars.iv, 5
  %gep = getelementptr i8, ptr %invariant.gep, i64 %3
  %4 = load i8, ptr %gep, align 1, !tbaa !7
  %5 = zext i8 %4 to i32
  %6 = add nuw nsw i32 %.067, %5
  %indvars.iv.next = add nuw nsw i64 %indvars.iv, 1
  %exitcond.not = icmp eq i64 %indvars.iv.next, 16
  br i1 %exitcond.not, label %7, label %2, !llvm.loop !21

7:                                                ; preds = %2
  %8 = lshr i32 %6, 4
  %9 = trunc i32 %8 to i8
  %10 = insertelement <16 x i8> poison, i8 %9, i64 0
  %11 = shufflevector <16 x i8> %10, <16 x i8> poison, <16 x i32> zeroinitializer
  br label %12

12:                                               ; preds = %12, %7
  %indvars.iv.i = phi i64 [ 0, %7 ], [ %indvars.iv.next.i, %12 ]
  %13 = shl nuw nsw i64 %indvars.iv.i, 5
  %14 = getelementptr inbounds nuw i8, ptr %0, i64 %13
  store <16 x i8> %11, ptr %14, align 1, !tbaa !7
  %indvars.iv.next.i = add nuw nsw i64 %indvars.iv.i, 1
  %exitcond.not.i = icmp eq i64 %indvars.iv.next.i, 16
  br i1 %exitcond.not.i, label %Put16_SSE2.exit, label %12, !llvm.loop !17

Put16_SSE2.exit:                                  ; preds = %12
  ret void
}